target datalayout = "e-m:e-p270:32:32-p271:32:32-p272:64:64-i64:64-i128:128-f80:128-n8:16:32:64-S128"
target triple = "x86_64-pc-linux-gnu"

%struct.H5D_chk_idx_info_t = type { ptr, ptr, ptr, ptr }
%struct.H5O_storage_chunk_t = type { i32, i64, ptr, %union.anon }
%union.anon = type { %struct.H5O_storage_chunk_btree_t }
%struct.H5O_storage_chunk_btree_t = type { i64, ptr }
%struct.H5O_storage_chunk_bt2_t = type { i64, ptr }

@.str.2 = private unnamed_addr constant [103 x i8] c"generated/home/dtcxzyw/WorkSpace/Projects/compilers/llvm-opt-benchmark/bench/hdf5/hdf5/src/H5Dbtree2.c\00", align 1
@H5E_DATASET_g = external global i64, align 8
@H5E_CANTGET_g = external global i64, align 8
@__func__.H5D__bt2_idx_close = private unnamed_addr constant [19 x i8] c"H5D__bt2_idx_close\00", align 1
@H5E_CANTCLOSEOBJ_g = external global i64, align 8
@.str.27 = private unnamed_addr constant [26 x i8] c"unable to close v2 B-tree\00", align 1
@H5E_CANTOPENOBJ_g = external global i64, align 8
@.str.28 = private unnamed_addr constant [21 x i8] c"can't open v2 B-tree\00", align 1
@__func__.H5D__bt2_idx_size = private unnamed_addr constant [18 x i8] c"H5D__bt2_idx_size\00", align 1
@.str.39 = private unnamed_addr constant [58 x i8] c"can't retrieve v2 B-tree storage info for chunked dataset\00", align 1
@H5E_CLOSEERROR_g = external global i64, align 8
@.str.40 = private unnamed_addr constant [51 x i8] c"can't close v2 B-tree for tracking chunked dataset\00", align 1

; Function Attrs: nounwind uwtable
define internal i32 @H5D__bt2_idx_close(ptr noundef %0) #0 {
  %2 = alloca ptr, align 8
  %3 = alloca i32, align 4
  %4 = alloca i8, align 1
  store ptr %0, ptr %2, align 8
  store i32 0, ptr %3, align 4
  store i8 0, ptr %4, align 1
  %5 = load ptr, ptr %2, align 8
  %6 = getelementptr inbounds %struct.H5D_chk_idx_info_t, ptr %5, i32 0, i32 3
  %7 = load ptr, ptr %6, align 8
  %8 = getelementptr inbounds %struct.H5O_storage_chunk_t, ptr %7, i32 0, i32 3
  %9 = getelementptr inbounds %struct.H5O_storage_chunk_bt2_t, ptr %8, i32 0, i32 1
  %10 = load ptr, ptr %9, align 8
  %11 = call i32 @H5B2_close(ptr noundef %10)
  %12 = icmp slt i32 %11, 0
  br i1 %12, label %13, label %28

13:                                               ; preds = %1
  br label %14

14:                                               ; preds = %13
  br label %15

15:                                               ; preds = %14
  br label %16

16:                                               ; preds = %15
  %17 = load i64, ptr @H5E_DATASET_g, align 8
  %18 = load i64, ptr @H5E_CANTCLOSEOBJ_g, align 8
  %19 = call i32 (ptr, ptr, i32, i64, i64, ptr, ...) @H5E_printf_stack(ptr noundef @.str.2, ptr noundef @__func__.H5D__bt2_idx_close, i32 noundef 793, i64 noundef %17, i64 noundef %18, ptr noundef @.str.27)
  br label %20

20:                                               ; preds = %16
  store i8 1, ptr %4, align 1
  %21 = load i8, ptr %4, align 1
  %22 = trunc i8 %21 to i1
  %23 = zext i1 %22 to i8
  store i8 %23, ptr %4, align 1
  br label %24

24:                                               ; preds = %20
  br label %25

25:                                               ; preds = %24
  store i32 -1, ptr %3, align 4
  br label %34

26:                                               ; No predecessors!
  br label %27

27:                                               ; preds = %26
  br label %28

28:                                               ; preds = %27, %1
  %29 = load ptr, ptr %2, align 8
  %30 = getelementptr inbounds %struct.H5D_chk_idx_info_t, ptr %29, i32 0, i32 3
  %31 = load ptr, ptr %30, align 8
  %32 = getelementptr inbounds %struct.H5O_storage_chunk_t, ptr %31, i32 0, i32 3
  %33 = getelementptr inbounds %struct.H5O_storage_chunk_bt2_t, ptr %32, i32 0, i32 1
  store ptr null, ptr %33, align 8
  br label %34

34:                                               ; preds = %28, %25
  %35 = load i32, ptr %3, align 4
  ret i32 %35
}

; Function Attrs: nounwind uwtable
define internal i32 @H5D__bt2_idx_size(ptr noundef %0, ptr noundef %1) #0 {
  %3 = alloca ptr, align 8
  %4 = alloca ptr, align 8
  %5 = alloca ptr, align 8
  %6 = alloca i32, align 4
  %7 = alloca i8, align 1
  store ptr %0, ptr %3, align 8
  store ptr %1, ptr %4, align 8
  store ptr null, ptr %5, align 8
  store i32 0, ptr %6, align 4
  store i8 0, ptr %7, align 1
  %8 = load ptr, ptr %3, align 8
  %9 = call i32 @H5D__bt2_idx_open(ptr noundef %8)
  %10 = icmp slt i32 %9, 0
  br i1 %10, label %11, label %26

11:                                               ; preds = %2
  br label %12

12:                                               ; preds = %11
  br label %13

13:                                               ; preds = %12
  br label %14

14:                                               ; preds = %13
  %15 = load i64, ptr @H5E_DATASET_g, align 8
  %16 = load i64, ptr @H5E_CANTOPENOBJ_g, align 8
  %17 = call i32 (ptr, ptr, i32, i64, i64, ptr, ...) @H5E_printf_stack(ptr noundef @.str.2, ptr noundef @__func__.H5D__bt2_idx_size, i32 noundef 1462, i64 noundef %15, i64 noundef %16, ptr noundef @.str.28)
  br label %18

18:                                               ; preds = %14
  store i8 1, ptr %7, align 1
  %19 = load i8, ptr %7, align 1
  %20 = trunc i8 %19 to i1
  %21 = zext i1 %20 to i8
  store i8 %21, ptr %7, align 1
  br label %22

22:                                               ; preds = %18
  br label %23

23:                                               ; preds = %22
  store i32 -1, ptr %6, align 4
  br label %53

24:                                               ; No predecessors!
  br label %25

25:                                               ; preds = %24
  br label %26

26:                                               ; preds = %25, %2
  %27 = load ptr, ptr %3, align 8
  %28 = getelementptr inbounds %struct.H5D_chk_idx_info_t, ptr %27, i32 0, i32 3
  %29 = load ptr, ptr %28, align 8
  %30 = getelementptr inbounds %struct.H5O_storage_chunk_t, ptr %29, i32 0, i32 3
  %31 = getelementptr inbounds %struct.H5O_storage_chunk_bt2_t, ptr %30, i32 0, i32 1
  %32 = load ptr, ptr %31, align 8
  store ptr %32, ptr %5, align 8
  %33 = load ptr, ptr %5, align 8
  %34 = load ptr, ptr %4, align 8
  %35 = call i32 @H5B2_size(ptr noundef %33, ptr noundef %34)
  %36 = icmp slt i32 %35, 0
  br i1 %36, label %37, label %52

37:                                               ; preds = %26
  br label %38

38:                                               ; preds = %37
  br label %39

39:                                               ; preds = %38
  br label %40

40:                                               ; preds = %39
  %41 = load i64, ptr @H5E_DATASET_g, align 8
  %42 = load i64, ptr @H5E_CANTGET_g, align 8
  %43 = call i32 (ptr, ptr, i32, i64, i64, ptr, ...) @H5E_printf_stack(ptr noundef @.str.2, ptr noundef @__func__.H5D__bt2_idx_size, i32 noundef 1470, i64 noundef %41, i64 noundef %42, ptr noundef @.str.39)
  br label %44

44:                                               ; preds = %40
  store i8 1, ptr %7, align 1
  %45 = load i8, ptr %7, align 1
  %46 = trunc i8 %45 to i1
  %47 = zext i1 %46 to i8
  store i8 %47, ptr %7, align 1
  br label %48

48:                                               ; preds = %44
  br label %49

49:                                               ; preds = %48
  store i32 -1, ptr %6, align 4
  br label %53

50:                                               ; No predecessors!
  br label %51

51:                                               ; preds = %50
  br label %52

52:                                               ; preds = %51, %26
  br label %53

53:                                               ; preds = %52, %49, %23
  %54 = load ptr, ptr %3, align 8
  %55 = call i32 @H5D__bt2_idx_close(ptr noundef %54)
  %56 = icmp slt i32 %55, 0
  br i1 %56, label %57, label %70

57:                                               ; preds = %53
  br label %58

58:                                               ; preds = %57
  br label %59

59:                                               ; preds = %58
  br label %60

60:                                               ; preds = %59
  %61 = load i64, ptr @H5E_DATASET_g, align 8
  %62 = load i64, ptr @H5E_CLOSEERROR_g, align 8
  %63 = call i32 (ptr, ptr, i32, i64, i64, ptr, ...) @H5E_printf_stack(ptr noundef @.str.2, ptr noundef @__func__.H5D__bt2_idx_size, i32 noundef 1475, i64 noundef %61, i64 noundef %62, ptr noundef @.str.40)
  br label %64

64:                                               ; preds = %60
  store i8 1, ptr %7, align 1
  %65 = load i8, ptr %7, align 1
  %66 = trunc i8 %65 to i1
  %67 = zext i1 %66 to i8
  store i8 %67, ptr %7, align 1
  br label %68

68:                                               ; preds = %64
  store i32 -1, ptr %6, align 4
  br label %69

69:                                               ; preds = %68
  br label %70

70:                                               ; preds = %69, %53
  %71 = load i32, ptr %6, align 4
  ret i32 %71
}