; Function Attrs: nounwind uwtable
define internal range(i32 -1, 1) i32 @H5D__bt2_idx_size(ptr nocapture noundef readonly %0, ptr noundef %1) #1 {
  %3 = tail call i32 @H5D__bt2_idx_open(ptr noundef %0)
  %4 = icmp slt i32 %3, 0
  br i1 %4, label %5, label %9

5:                                                ; preds = %2
  %6 = load i64, ptr @H5E_DATASET_g, align 8
  %7 = load i64, ptr @H5E_CANTOPENOBJ_g, align 8
  %8 = tail call i32 (ptr, ptr, i32, i64, i64, ptr, ...) @H5E_printf_stack(ptr noundef nonnull @.str.2, ptr noundef nonnull @__func__.H5D__bt2_idx_size, i32 noundef 1462, i64 noundef %6, i64 noundef %7, ptr noundef nonnull @.str.28) #14
  br label %20

9:                                                ; preds = %2
  %10 = getelementptr inbounds i8, ptr %0, i64 24
  %11 = load ptr, ptr %10, align 8
  %12 = getelementptr inbounds i8, ptr %11, i64 32
  %13 = load ptr, ptr %12, align 8
  %14 = tail call i32 @H5B2_size(ptr noundef %13, ptr noundef %1) #14
  %15 = icmp slt i32 %14, 0
  br i1 %15, label %16, label %20

16:                                               ; preds = %9
  %17 = load i64, ptr @H5E_DATASET_g, align 8
  %18 = load i64, ptr @H5E_CANTGET_g, align 8
  %19 = tail call i32 (ptr, ptr, i32, i64, i64, ptr, ...) @H5E_printf_stack(ptr noundef nonnull @.str.2, ptr noundef nonnull @__func__.H5D__bt2_idx_size, i32 noundef 1470, i64 noundef %17, i64 noundef %18, ptr noundef nonnull @.str.39) #14
  br label %20

20:                                               ; preds = %9, %16, %5
  %.0 = phi i32 [ -1, %5 ], [ -1, %16 ], [ 0, %9 ]
  %21 = getelementptr inbounds i8, ptr %0, i64 24
  %22 = load ptr, ptr %21, align 8
  %23 = getelementptr inbounds i8, ptr %22, i64 32
  %24 = load ptr, ptr %23, align 8
  %25 = tail call i32 @H5B2_close(ptr noundef %24) #14
  %26 = icmp slt i32 %25, 0
  br i1 %26, label %29, label %H5D__bt2_idx_close.exit

H5D__bt2_idx_close.exit:                          ; preds = %20
  %27 = load ptr, ptr %21, align 8
  %28 = getelementptr inbounds i8, ptr %27, i64 32
  store ptr null, ptr %28, align 8
  br label %36

29:                                               ; preds = %20
  %30 = load i64, ptr @H5E_DATASET_g, align 8
  %31 = load i64, ptr @H5E_CANTCLOSEOBJ_g, align 8
  %32 = tail call i32 (ptr, ptr, i32, i64, i64, ptr, ...) @H5E_printf_stack(ptr noundef nonnull @.str.2, ptr noundef nonnull @__func__.H5D__bt2_idx_close, i32 noundef 793, i64 noundef %30, i64 noundef %31, ptr noundef nonnull @.str.27) #14
  %33 = load i64, ptr @H5E_DATASET_g, align 8
  %34 = load i64, ptr @H5E_CLOSEERROR_g, align 8
  %35 = tail call i32 (ptr, ptr, i32, i64, i64, ptr, ...) @H5E_printf_stack(ptr noundef nonnull @.str.2, ptr noundef nonnull @__func__.H5D__bt2_idx_size, i32 noundef 1475, i64 noundef %33, i64 noundef %34, ptr noundef nonnull @.str.40) #14
  br label %36

36:                                               ; preds = %H5D__bt2_idx_close.exit, %29
  %.1 = phi i32 [ -1, %29 ], [ %.0, %H5D__bt2_idx_close.exit ]
  ret i32 %.1
}